target datalayout = "e-m:e-p270:32:32-p271:32:32-p272:64:64-i64:64-i128:128-f80:128-n8:16:32:64-S128"
target triple = "x86_64-pc-linux-gnu"

%struct.StringInfoData = type { ptr, i32, i32, i32 }
%struct.__va_list_tag = type { i32, i32, ptr, ptr }

; Function Attrs: nounwind uwtable
define dso_local i32 @appendStringInfoVA(ptr noundef %0, ptr noundef %1, ptr noundef %2) #0 {
  %4 = alloca i32, align 4
  %5 = alloca ptr, align 8
  %6 = alloca ptr, align 8
  %7 = alloca ptr, align 8
  %8 = alloca i32, align 4
  %9 = alloca i64, align 8
  %10 = alloca i32, align 4
  store ptr %0, ptr %5, align 8
  store ptr %1, ptr %6, align 8
  store ptr %2, ptr %7, align 8
  call void @llvm.lifetime.start.p0(i64 4, ptr %8) #10
  call void @llvm.lifetime.start.p0(i64 8, ptr %9) #10
  %11 = load ptr, ptr %5, align 8
  %12 = getelementptr inbounds nuw %struct.StringInfoData, ptr %11, i32 0, i32 2
  %13 = load i32, ptr %12, align 4
  %14 = load ptr, ptr %5, align 8
  %15 = getelementptr inbounds nuw %struct.StringInfoData, ptr %14, i32 0, i32 1
  %16 = load i32, ptr %15, align 8
  %17 = sub i32 %13, %16
  store i32 %17, ptr %8, align 4
  %18 = load i32, ptr %8, align 4
  %19 = icmp slt i32 %18, 16
  br i1 %19, label %20, label %21

20:                                               ; preds = %3
  store i32 32, ptr %4, align 4
  store i32 1, ptr %10, align 4
  br label %57

21:                                               ; preds = %3
  %22 = load ptr, ptr %5, align 8
  %23 = getelementptr inbounds nuw %struct.StringInfoData, ptr %22, i32 0, i32 0
  %24 = load ptr, ptr %23, align 8
  %25 = load ptr, ptr %5, align 8
  %26 = getelementptr inbounds nuw %struct.StringInfoData, ptr %25, i32 0, i32 1
  %27 = load i32, ptr %26, align 8
  %28 = sext i32 %27 to i64
  %29 = getelementptr inbounds i8, ptr %24, i64 %28
  %30 = load i32, ptr %8, align 4
  %31 = sext i32 %30 to i64
  %32 = load ptr, ptr %6, align 8
  %33 = load ptr, ptr %7, align 8
  %34 = call i64 @pvsnprintf(ptr noundef %29, i64 noundef %31, ptr noundef %32, ptr noundef %33)
  store i64 %34, ptr %9, align 8
  %35 = load i64, ptr %9, align 8
  %36 = load i32, ptr %8, align 4
  %37 = sext i32 %36 to i64
  %38 = icmp ult i64 %35, %37
  br i1 %38, label %39, label %46

39:                                               ; preds = %21
  %40 = load i64, ptr %9, align 8
  %41 = trunc i64 %40 to i32
  %42 = load ptr, ptr %5, align 8
  %43 = getelementptr inbounds nuw %struct.StringInfoData, ptr %42, i32 0, i32 1
  %44 = load i32, ptr %43, align 8
  %45 = add i32 %44, %41
  store i32 %45, ptr %43, align 8
  store i32 0, ptr %4, align 4
  store i32 1, ptr %10, align 4
  br label %57

46:                                               ; preds = %21
  %47 = load ptr, ptr %5, align 8
  %48 = getelementptr inbounds nuw %struct.StringInfoData, ptr %47, i32 0, i32 0
  %49 = load ptr, ptr %48, align 8
  %50 = load ptr, ptr %5, align 8
  %51 = getelementptr inbounds nuw %struct.StringInfoData, ptr %50, i32 0, i32 1
  %52 = load i32, ptr %51, align 8
  %53 = sext i32 %52 to i64
  %54 = getelementptr inbounds i8, ptr %49, i64 %53
  store i8 0, ptr %54, align 1
  %55 = load i64, ptr %9, align 8
  %56 = trunc i64 %55 to i32
  store i32 %56, ptr %4, align 4
  store i32 1, ptr %10, align 4
  br label %57

57:                                               ; preds = %46, %39, %20
  call void @llvm.lifetime.end.p0(i64 8, ptr %9) #10
  call void @llvm.lifetime.end.p0(i64 4, ptr %8) #10
  %58 = load i32, ptr %4, align 4
  ret i32 %58
}

; Function Attrs: nounwind uwtable
define dso_local void @appendStringInfo(ptr noundef %0, ptr noundef %1, ...) #0 {
  %3 = alloca ptr, align 8
  %4 = alloca ptr, align 8
  %5 = alloca i32, align 4
  %6 = alloca [1 x %struct.__va_list_tag], align 16
  %7 = alloca i32, align 4
  %8 = alloca i32, align 4
  store ptr %0, ptr %3, align 8
  store ptr %1, ptr %4, align 8
  call void @llvm.lifetime.start.p0(i64 4, ptr %5) #10
  %9 = call ptr @__errno_location() #11
  %10 = load i32, ptr %9, align 4
  store i32 %10, ptr %5, align 4
  br label %11

11:                                               ; preds = %28, %2
  call void @llvm.lifetime.start.p0(i64 24, ptr %6) #10
  call void @llvm.lifetime.start.p0(i64 4, ptr %7) #10
  %12 = load i32, ptr %5, align 4
  %13 = call ptr @__errno_location() #11
  store i32 %12, ptr %13, align 4
  %14 = getelementptr inbounds [1 x %struct.__va_list_tag], ptr %6, i64 0, i64 0
  call void @llvm.va_start.p0(ptr %14)
  %15 = load ptr, ptr %3, align 8
  %16 = load ptr, ptr %4, align 8
  %17 = getelementptr inbounds [1 x %struct.__va_list_tag], ptr %6, i64 0, i64 0
  %18 = call i32 @appendStringInfoVA(ptr noundef %15, ptr noundef %16, ptr noundef %17)
  store i32 %18, ptr %7, align 4
  %19 = getelementptr inbounds [1 x %struct.__va_list_tag], ptr %6, i64 0, i64 0
  call void @llvm.va_end.p0(ptr %19)
  %20 = load i32, ptr %7, align 4
  %21 = icmp eq i32 %20, 0
  br i1 %21, label %22, label %23

22:                                               ; preds = %11
  store i32 2, ptr %8, align 4
  br label %26

23:                                               ; preds = %11
  %24 = load ptr, ptr %3, align 8
  %25 = load i32, ptr %7, align 4
  call void @enlargeStringInfo(ptr noundef %24, i32 noundef %25)
  store i32 0, ptr %8, align 4
  br label %26

26:                                               ; preds = %23, %22
  call void @llvm.lifetime.end.p0(i64 4, ptr %7) #10
  call void @llvm.lifetime.end.p0(i64 24, ptr %6) #10
  %27 = load i32, ptr %8, align 4
  switch i32 %27, label %30 [
    i32 0, label %28
    i32 2, label %29
  ]

28:                                               ; preds = %26
  br label %11

29:                                               ; preds = %26
  call void @llvm.lifetime.end.p0(i64 4, ptr %5) #10
  ret void

30:                                               ; preds = %26
  unreachable
}