; Function Attrs: nounwind uwtable
define dso_local void @appendStringInfo(ptr noundef captures(none) %0, ptr noundef %1, ...) local_unnamed_addr #0 {
  %3 = alloca [1 x %struct.__va_list_tag], align 16
  %4 = tail call ptr @__errno_location() #13
  %5 = load i32, ptr %4, align 4
  %6 = getelementptr inbounds nuw i8, ptr %0, i64 12
  %7 = getelementptr inbounds nuw i8, ptr %0, i64 8
  br label %8

8:                                                ; preds = %28, %2
  call void @llvm.lifetime.start.p0(i64 24, ptr nonnull %3) #12
  store i32 %5, ptr %4, align 4
  call void @llvm.va_start.p0(ptr nonnull %3)
  %9 = load i32, ptr %6, align 4
  %10 = load i32, ptr %7, align 8
  %11 = sub i32 %9, %10
  %12 = icmp slt i32 %11, 16
  br i1 %12, label %appendStringInfoVA.exit.thread8, label %13

appendStringInfoVA.exit.thread8:                  ; preds = %8
  call void @llvm.va_end.p0(ptr nonnull %3)
  br label %28

13:                                               ; preds = %8
  %14 = load ptr, ptr %0, align 8
  %15 = sext i32 %10 to i64
  %16 = getelementptr inbounds i8, ptr %14, i64 %15
  %17 = zext nneg i32 %11 to i64
  %18 = call i64 @pvsnprintf(ptr noundef %16, i64 noundef %17, ptr noundef %1, ptr noundef nonnull %3) #12
  %19 = icmp ult i64 %18, %17
  %20 = load i32, ptr %7, align 8
  br i1 %19, label %appendStringInfoVA.exit.thread, label %appendStringInfoVA.exit

appendStringInfoVA.exit.thread:                   ; preds = %13
  %21 = trunc nuw nsw i64 %18 to i32
  %22 = add i32 %20, %21
  store i32 %22, ptr %7, align 8
  call void @llvm.va_end.p0(ptr nonnull %3)
  br label %.loopexit

appendStringInfoVA.exit:                          ; preds = %13
  %23 = load ptr, ptr %0, align 8
  %24 = sext i32 %20 to i64
  %25 = getelementptr inbounds i8, ptr %23, i64 %24
  store i8 0, ptr %25, align 1
  %26 = trunc i64 %18 to i32
  call void @llvm.va_end.p0(ptr nonnull %3)
  %27 = icmp eq i32 %26, 0
  br i1 %27, label %.loopexit, label %28

28:                                               ; preds = %appendStringInfoVA.exit, %appendStringInfoVA.exit.thread8
  %.0.i10 = phi i32 [ 32, %appendStringInfoVA.exit.thread8 ], [ %26, %appendStringInfoVA.exit ]
  call void @enlargeStringInfo(ptr noundef nonnull %0, i32 noundef %.0.i10)
  call void @llvm.lifetime.end.p0(i64 24, ptr nonnull %3) #12
  br label %8

.loopexit:                                        ; preds = %appendStringInfoVA.exit, %appendStringInfoVA.exit.thread
  call void @llvm.lifetime.end.p0(i64 24, ptr nonnull %3) #12
  ret void
}